target datalayout = "e-m:e-p270:32:32-p271:32:32-p272:64:64-i64:64-i128:128-f80:128-n8:16:32:64-S128"
target triple = "x86_64-pc-linux-gnu"

%struct.ident_t = type { i32, i32, i32, i32, ptr }
%struct.Qureg = type { i32, i32, i32, i64, i64, i32, i32, %struct.ComplexArray, %struct.ComplexArray, %struct.ComplexArray, ptr, ptr, ptr, ptr, ptr, ptr }
%struct.ComplexArray = type { ptr, ptr }

@1 = private unnamed_addr constant %struct.ident_t { i32 0, i32 514, i32 0, i32 22, ptr @0 }, align 8
@3 = private unnamed_addr constant %struct.ident_t { i32 0, i32 2, i32 0, i32 22, ptr @0 }, align 8

; Function Attrs: nounwind uwtable
define void @zeroSomeAmps(ptr noundef byval(%struct.Qureg) align 8 %0, i64 noundef %1, i64 noundef %2) #0 {
  %4 = alloca i64, align 8
  %5 = alloca i64, align 8
  store i64 %1, ptr %4, align 8, !tbaa !4
  store i64 %2, ptr %5, align 8, !tbaa !4
  call void (ptr, i32, ptr, ...) @__kmpc_fork_call(ptr @3, i32 3, ptr @zeroSomeAmps.omp_outlined, ptr %4, ptr %5, ptr %0)
  ret void
}

; Function Attrs: nounwind uwtable
define void @normaliseSomeAmps(ptr noundef byval(%struct.Qureg) align 8 %0, double noundef %1, i64 noundef %2, i64 noundef %3) #0 {
  %5 = alloca double, align 8
  %6 = alloca i64, align 8
  %7 = alloca i64, align 8
  store double %1, ptr %5, align 8, !tbaa !10
  store i64 %2, ptr %6, align 8, !tbaa !4
  store i64 %3, ptr %7, align 8, !tbaa !4
  call void (ptr, i32, ptr, ...) @__kmpc_fork_call(ptr @3, i32 4, ptr @normaliseSomeAmps.omp_outlined, ptr %6, ptr %7, ptr %0, ptr %5)
  ret void
}

; Function Attrs: alwaysinline norecurse nounwind uwtable
define internal void @alternateNormZeroingSomeAmpBlocks.omp_outlined(ptr noalias noundef %0, ptr noalias noundef %1, ptr noundef nonnull align 8 dereferenceable(8) %2, ptr noundef nonnull align 8 dereferenceable(8) %3, ptr noundef nonnull align 8 dereferenceable(8) %4, ptr noundef nonnull align 8 dereferenceable(136) %5, ptr noundef nonnull align 8 dereferenceable(8) %6) #2 {
  %8 = alloca ptr, align 8
  %9 = alloca ptr, align 8
  %10 = alloca ptr, align 8
  %11 = alloca ptr, align 8
  %12 = alloca ptr, align 8
  %13 = alloca ptr, align 8
  %14 = alloca ptr, align 8
  %15 = alloca i64, align 8
  %16 = alloca i64, align 8
  %17 = alloca i64, align 8
  %18 = alloca i64, align 8
  %19 = alloca i64, align 8
  %20 = alloca i64, align 8
  %21 = alloca i64, align 8
  %22 = alloca i32, align 4
  %23 = alloca i64, align 8
  %24 = alloca i64, align 8
  store ptr %0, ptr %8, align 8, !tbaa !19
  store ptr %1, ptr %9, align 8, !tbaa !19
  store ptr %2, ptr %10, align 8, !tbaa !21
  store ptr %3, ptr %11, align 8, !tbaa !21
  store ptr %4, ptr %12, align 8, !tbaa !21
  store ptr %5, ptr %13, align 8, !tbaa !23
  store ptr %6, ptr %14, align 8, !tbaa !25
  %25 = load ptr, ptr %10, align 8, !tbaa !21
  %26 = load ptr, ptr %11, align 8, !tbaa !21
  %27 = load ptr, ptr %12, align 8, !tbaa !21
  %28 = load ptr, ptr %13, align 8, !tbaa !23
  %29 = load ptr, ptr %14, align 8, !tbaa !25
  call void @llvm.lifetime.start.p0(i64 8, ptr %15) #3
  call void @llvm.lifetime.start.p0(i64 8, ptr %16) #3
  %30 = load i64, ptr %25, align 8, !tbaa !4
  store i64 %30, ptr %16, align 8, !tbaa !4
  call void @llvm.lifetime.start.p0(i64 8, ptr %17) #3
  %31 = load i64, ptr %16, align 8, !tbaa !4
  %32 = sub nsw i64 %31, 0
  %33 = sdiv i64 %32, 1
  %34 = sub nsw i64 %33, 1
  store i64 %34, ptr %17, align 8, !tbaa !4
  call void @llvm.lifetime.start.p0(i64 8, ptr %18) #3
  store i64 0, ptr %18, align 8, !tbaa !4
  call void @llvm.lifetime.end.p0(i64 8, ptr %18) #3
  %35 = load i64, ptr %16, align 8, !tbaa !4
  %36 = icmp slt i64 0, %35
  br i1 %36, label %37, label %81

37:                                               ; preds = %7
  call void @llvm.lifetime.start.p0(i64 8, ptr %19) #3
  store i64 0, ptr %19, align 8, !tbaa !4
  call void @llvm.lifetime.start.p0(i64 8, ptr %20) #3
  %38 = load i64, ptr %17, align 8, !tbaa !4
  store i64 %38, ptr %20, align 8, !tbaa !4
  call void @llvm.lifetime.start.p0(i64 8, ptr %21) #3
  store i64 1, ptr %21, align 8, !tbaa !4
  call void @llvm.lifetime.start.p0(i64 4, ptr %22) #3
  store i32 0, ptr %22, align 4, !tbaa !8
  call void @llvm.lifetime.start.p0(i64 8, ptr %23) #3
  call void @llvm.lifetime.start.p0(i64 8, ptr %24) #3
  %39 = load ptr, ptr %8, align 8
  %40 = load i32, ptr %39, align 4, !tbaa !8
  call void @__kmpc_for_static_init_8(ptr @1, i32 %40, i32 34, ptr %22, ptr %19, ptr %20, ptr %21, i64 1, i64 1)
  %41 = load i64, ptr %20, align 8, !tbaa !4
  %42 = load i64, ptr %17, align 8, !tbaa !4
  %43 = icmp sgt i64 %41, %42
  br i1 %43, label %44, label %46

44:                                               ; preds = %37
  %45 = load i64, ptr %17, align 8, !tbaa !4
  br label %48

46:                                               ; preds = %37
  %47 = load i64, ptr %20, align 8, !tbaa !4
  br label %48

48:                                               ; preds = %46, %44
  %49 = phi i64 [ %45, %44 ], [ %47, %46 ]
  store i64 %49, ptr %20, align 8, !tbaa !4
  %50 = load i64, ptr %19, align 8, !tbaa !4
  store i64 %50, ptr %15, align 8, !tbaa !4
  br label %51

51:                                               ; preds = %74, %48
  %52 = load i64, ptr %15, align 8, !tbaa !4
  %53 = load i64, ptr %20, align 8, !tbaa !4
  %54 = icmp sle i64 %52, %53
  br i1 %54, label %56, label %55

55:                                               ; preds = %51
  br label %77

56:                                               ; preds = %51
  %57 = load i64, ptr %15, align 8, !tbaa !4
  %58 = mul nsw i64 %57, 1
  %59 = add nsw i64 0, %58
  store i64 %59, ptr %24, align 8, !tbaa !4
  %60 = load i64, ptr %26, align 8, !tbaa !4
  %61 = load i64, ptr %24, align 8, !tbaa !4
  %62 = mul nsw i64 %61, 2
  %63 = load i64, ptr %27, align 8, !tbaa !4
  %64 = mul nsw i64 %62, %63
  %65 = add nsw i64 %60, %64
  store i64 %65, ptr %23, align 8, !tbaa !4
  %66 = load double, ptr %29, align 8, !tbaa !10
  %67 = load i64, ptr %23, align 8, !tbaa !4
  %68 = load i64, ptr %27, align 8, !tbaa !4
  call void @normaliseSomeAmps(ptr noundef byval(%struct.Qureg) align 8 %28, double noundef %66, i64 noundef %67, i64 noundef %68)
  %69 = load i64, ptr %23, align 8, !tbaa !4
  %70 = load i64, ptr %27, align 8, !tbaa !4
  %71 = add nsw i64 %69, %70
  %72 = load i64, ptr %27, align 8, !tbaa !4
  call void @zeroSomeAmps(ptr noundef byval(%struct.Qureg) align 8 %28, i64 noundef %71, i64 noundef %72)
  br label %73

73:                                               ; preds = %56
  br label %74

74:                                               ; preds = %73
  %75 = load i64, ptr %15, align 8, !tbaa !4
  %76 = add nsw i64 %75, 1
  store i64 %76, ptr %15, align 8, !tbaa !4
  br label %51

77:                                               ; preds = %55
  br label %78

78:                                               ; preds = %77
  %79 = load ptr, ptr %8, align 8
  %80 = load i32, ptr %79, align 4, !tbaa !8
  call void @__kmpc_for_static_fini(ptr @1, i32 %80)
  call void @llvm.lifetime.end.p0(i64 8, ptr %24) #3
  call void @llvm.lifetime.end.p0(i64 8, ptr %23) #3
  call void @llvm.lifetime.end.p0(i64 4, ptr %22) #3
  call void @llvm.lifetime.end.p0(i64 8, ptr %21) #3
  call void @llvm.lifetime.end.p0(i64 8, ptr %20) #3
  call void @llvm.lifetime.end.p0(i64 8, ptr %19) #3
  br label %81

81:                                               ; preds = %78, %7
  call void @llvm.lifetime.end.p0(i64 8, ptr %17) #3
  call void @llvm.lifetime.end.p0(i64 8, ptr %16) #3
  call void @llvm.lifetime.end.p0(i64 8, ptr %15) #3
  ret void
}