; Function Attrs: alwaysinline norecurse nounwind uwtable
define internal void @alternateNormZeroingSomeAmpBlocks.omp_outlined(ptr noalias noundef readonly captures(none) %0, ptr noalias readnone captures(none) %1, ptr noundef nonnull readonly align 8 captures(none) dereferenceable(8) %2, ptr noundef nonnull readonly align 8 captures(none) dereferenceable(8) %3, ptr noundef nonnull readonly align 8 captures(none) dereferenceable(8) %4, ptr noundef nonnull readonly align 8 captures(none) dereferenceable(136) %5, ptr noundef nonnull readonly align 8 captures(none) dereferenceable(8) %6) #3 {
  %8 = alloca i64, align 8
  %9 = alloca i64, align 8
  %10 = alloca %struct.Qureg, align 8
  %11 = alloca double, align 8
  %12 = alloca i64, align 8
  %13 = alloca i64, align 8
  %14 = alloca %struct.Qureg, align 8
  %15 = alloca i64, align 8
  %16 = alloca i64, align 8
  %17 = alloca i64, align 8
  %18 = alloca i32, align 4
  %19 = load i64, ptr %2, align 8, !tbaa !16
  %20 = icmp sgt i64 %19, 0
  br i1 %20, label %21, label %37

21:                                               ; preds = %7
  %22 = add nsw i64 %19, -1
  call void @llvm.lifetime.start.p0(i64 8, ptr nonnull %15) #4
  store i64 0, ptr %15, align 8, !tbaa !16
  call void @llvm.lifetime.start.p0(i64 8, ptr nonnull %16) #4
  store i64 %22, ptr %16, align 8, !tbaa !16
  call void @llvm.lifetime.start.p0(i64 8, ptr nonnull %17) #4
  store i64 1, ptr %17, align 8, !tbaa !16
  call void @llvm.lifetime.start.p0(i64 4, ptr nonnull %18) #4
  store i32 0, ptr %18, align 4, !tbaa !18
  %23 = load i32, ptr %0, align 4, !tbaa !18
  call void @__kmpc_for_static_init_8(ptr nonnull @1, i32 %23, i32 34, ptr nonnull %18, ptr nonnull %15, ptr nonnull %16, ptr nonnull %17, i64 1, i64 1)
  %24 = load i64, ptr %16, align 8, !tbaa !16
  %25 = call i64 @llvm.smin.i64(i64 %24, i64 %22)
  store i64 %25, ptr %16, align 8, !tbaa !16
  %26 = load i64, ptr %15, align 8, !tbaa !16
  %.not17 = icmp sgt i64 %26, %25
  br i1 %.not17, label %._crit_edge, label %.lr.ph

.lr.ph:                                           ; preds = %21, %.lr.ph
  %.018 = phi i64 [ %35, %.lr.ph ], [ %26, %21 ]
  %27 = load i64, ptr %3, align 8, !tbaa !16
  %28 = shl nsw i64 %.018, 1
  %29 = load i64, ptr %4, align 8, !tbaa !16
  %30 = mul nsw i64 %28, %29
  %31 = add nsw i64 %30, %27
  %32 = load double, ptr %6, align 8, !tbaa !4
  call void @llvm.lifetime.start.p0(i64 136, ptr nonnull %14)
  call void @llvm.lifetime.start.p0(i64 8, ptr nonnull %11)
  call void @llvm.lifetime.start.p0(i64 8, ptr nonnull %12)
  call void @llvm.lifetime.start.p0(i64 8, ptr nonnull %13)
  call void @llvm.memcpy.p0.p0.i64(ptr noundef nonnull align 8 dereferenceable(136) %14, ptr noundef nonnull align 8 dereferenceable(136) %5, i64 136, i1 false)
  store double %32, ptr %11, align 8, !tbaa !4
  store i64 %31, ptr %12, align 8, !tbaa !16
  store i64 %29, ptr %13, align 8, !tbaa !16
  call void (ptr, i32, ptr, ...) @__kmpc_fork_call(ptr nonnull @3, i32 4, ptr nonnull @normaliseSomeAmps.omp_outlined, ptr nonnull %12, ptr nonnull %13, ptr nonnull align 8 %14, ptr nonnull %11)
  call void @llvm.lifetime.end.p0(i64 136, ptr nonnull %14)
  call void @llvm.lifetime.end.p0(i64 8, ptr nonnull %11)
  call void @llvm.lifetime.end.p0(i64 8, ptr nonnull %12)
  call void @llvm.lifetime.end.p0(i64 8, ptr nonnull %13)
  %33 = load i64, ptr %4, align 8, !tbaa !16
  %34 = add nsw i64 %33, %31
  call void @llvm.lifetime.start.p0(i64 136, ptr nonnull %10)
  call void @llvm.lifetime.start.p0(i64 8, ptr nonnull %8)
  call void @llvm.lifetime.start.p0(i64 8, ptr nonnull %9)
  call void @llvm.memcpy.p0.p0.i64(ptr noundef nonnull align 8 dereferenceable(136) %10, ptr noundef nonnull align 8 dereferenceable(136) %5, i64 136, i1 false)
  store i64 %34, ptr %8, align 8, !tbaa !16
  store i64 %33, ptr %9, align 8, !tbaa !16
  call void (ptr, i32, ptr, ...) @__kmpc_fork_call(ptr nonnull @3, i32 3, ptr nonnull @zeroSomeAmps.omp_outlined, ptr nonnull %8, ptr nonnull %9, ptr nonnull align 8 %10)
  call void @llvm.lifetime.end.p0(i64 136, ptr nonnull %10)
  call void @llvm.lifetime.end.p0(i64 8, ptr nonnull %8)
  call void @llvm.lifetime.end.p0(i64 8, ptr nonnull %9)
  %35 = add nsw i64 %.018, 1
  %36 = load i64, ptr %16, align 8, !tbaa !16
  %.not.not = icmp slt i64 %.018, %36
  br i1 %.not.not, label %.lr.ph, label %._crit_edge

._crit_edge:                                      ; preds = %.lr.ph, %21
  call void @__kmpc_for_static_fini(ptr nonnull @1, i32 %23)
  call void @llvm.lifetime.end.p0(i64 4, ptr nonnull %18) #4
  call void @llvm.lifetime.end.p0(i64 8, ptr nonnull %17) #4
  call void @llvm.lifetime.end.p0(i64 8, ptr nonnull %16) #4
  call void @llvm.lifetime.end.p0(i64 8, ptr nonnull %15) #4
  br label %37

37:                                               ; preds = %._crit_edge, %7
  ret void
}